; Function Attrs: mustprogress nofree norecurse nosync nounwind willreturn memory(argmem: readwrite) uwtable
define hidden ptr @PyExpat_XML_GetInputContext(ptr noundef readonly %0, ptr noundef writeonly %1, ptr noundef writeonly %2) local_unnamed_addr #4 {
  %4 = icmp eq ptr %0, null
  br i1 %4, label %25, label %5

5:                                                ; preds = %3
  %6 = getelementptr inbounds nuw i8, ptr %0, i64 560
  %7 = load ptr, ptr %6, align 8, !tbaa !204
  %.not = icmp eq ptr %7, null
  br i1 %.not, label %25, label %8

8:                                                ; preds = %5
  %9 = getelementptr inbounds nuw i8, ptr %0, i64 16
  %10 = load ptr, ptr %9, align 8, !tbaa !11
  %.not18 = icmp eq ptr %10, null
  br i1 %.not18, label %25, label %11

11:                                               ; preds = %8
  %.not19 = icmp eq ptr %1, null
  br i1 %.not19, label %17, label %12

12:                                               ; preds = %11
  %13 = ptrtoint ptr %7 to i64
  %14 = ptrtoint ptr %10 to i64
  %15 = sub i64 %13, %14
  %16 = trunc i64 %15 to i32
  store i32 %16, ptr %1, align 4, !tbaa !116
  br label %17

17:                                               ; preds = %12, %11
  %.not20 = icmp eq ptr %2, null
  br i1 %.not20, label %25, label %18

18:                                               ; preds = %17
  %19 = getelementptr inbounds nuw i8, ptr %0, i64 56
  %20 = load ptr, ptr %19, align 8, !tbaa !106
  %21 = ptrtoint ptr %20 to i64
  %22 = ptrtoint ptr %10 to i64
  %23 = sub i64 %21, %22
  %24 = trunc i64 %23 to i32
  store i32 %24, ptr %2, align 4, !tbaa !116
  br label %25

25:                                               ; preds = %17, %18, %5, %8, %3
  %.0 = phi ptr [ null, %3 ], [ null, %8 ], [ null, %5 ], [ %10, %18 ], [ %10, %17 ]
  ret ptr %.0
}